target datalayout = "e-m:e-p270:32:32-p271:32:32-p272:64:64-i64:64-i128:128-f80:128-n8:16:32:64-S128"
target triple = "x86_64-pc-linux-gnu"

%struct.conf_method_st = type { ptr, ptr, ptr, ptr, ptr, ptr, ptr, ptr, ptr, ptr }

@.str.1 = private unnamed_addr constant [34 x i8] c"../openssl/crypto/conf/conf_def.c\00", align 1

; Function Attrs: nounwind uwtable
define internal ptr @def_create(ptr noundef %0) #0 {
  %2 = alloca ptr, align 8
  %3 = alloca ptr, align 8
  store ptr %0, ptr %2, align 8, !tbaa !3
  call void @llvm.lifetime.start.p0(i64 8, ptr %3) #9
  %4 = call noalias ptr @CRYPTO_malloc(i64 noundef 48, ptr noundef @.str.1, i32 noundef 115)
  store ptr %4, ptr %3, align 8, !tbaa !8
  %5 = load ptr, ptr %3, align 8, !tbaa !8
  %6 = icmp ne ptr %5, null
  br i1 %6, label %7, label %17

7:                                                ; preds = %1
  %8 = load ptr, ptr %2, align 8, !tbaa !3
  %9 = getelementptr inbounds nuw %struct.conf_method_st, ptr %8, i32 0, i32 2
  %10 = load ptr, ptr %9, align 8, !tbaa !10
  %11 = load ptr, ptr %3, align 8, !tbaa !8
  %12 = call i32 %10(ptr noundef %11)
  %13 = icmp eq i32 %12, 0
  br i1 %13, label %14, label %16

14:                                               ; preds = %7
  %15 = load ptr, ptr %3, align 8, !tbaa !8
  call void @CRYPTO_free(ptr noundef %15, ptr noundef @.str.1, i32 noundef 118)
  store ptr null, ptr %3, align 8, !tbaa !8
  br label %16

16:                                               ; preds = %14, %7
  br label %17

17:                                               ; preds = %16, %1
  %18 = load ptr, ptr %3, align 8, !tbaa !8
  call void @llvm.lifetime.end.p0(i64 8, ptr %3) #9
  ret ptr %18
}