; Function Attrs: nounwind uwtable
define internal ptr @def_create(ptr noundef readonly captures(none) %0) #1 {
  %2 = tail call noalias ptr @CRYPTO_malloc(i64 noundef 48, ptr noundef nonnull @.str.1, i32 noundef 115) #15
  %.not = icmp eq ptr %2, null
  br i1 %.not, label %9, label %3

3:                                                ; preds = %1
  %4 = getelementptr inbounds nuw i8, ptr %0, i64 16
  %5 = load ptr, ptr %4, align 8, !tbaa !3
  %6 = tail call i32 %5(ptr noundef nonnull %2) #15
  %7 = icmp eq i32 %6, 0
  br i1 %7, label %8, label %9

8:                                                ; preds = %3
  tail call void @CRYPTO_free(ptr noundef nonnull %2, ptr noundef nonnull @.str.1, i32 noundef 118) #15
  br label %9

9:                                                ; preds = %3, %8, %1
  %.0 = phi ptr [ null, %8 ], [ %2, %3 ], [ null, %1 ]
  ret ptr %.0
}